; Function Attrs: nounwind uwtable
define internal fastcc void @Acb_ManFree(ptr noundef captures(none) %0) unnamed_addr #0 {
  %2 = getelementptr i8, ptr %0, i64 1708
  %.val42 = load i32, ptr %2, align 4
  %.not.not43 = icmp sgt i32 %.val42, 1
  br i1 %.not.not43, label %Acb_ManNtk.exit.lr.ph, label %.critedge

Acb_ManNtk.exit.lr.ph:                            ; preds = %1
  %3 = getelementptr i8, ptr %0, i64 1712
  br label %Acb_ManNtk.exit

Acb_ManNtk.exit:                                  ; preds = %Acb_ManNtk.exit.lr.ph, %Acb_ManNtk.exit
  %indvars.iv = phi i64 [ 1, %Acb_ManNtk.exit.lr.ph ], [ %indvars.iv.next, %Acb_ManNtk.exit ]
  %.val.i = load ptr, ptr %3, align 8
  %4 = getelementptr inbounds nuw ptr, ptr %.val.i, i64 %indvars.iv
  %5 = load ptr, ptr %4, align 8
  tail call fastcc void @Acb_NtkFree(ptr noundef %5)
  %indvars.iv.next = add nuw nsw i64 %indvars.iv, 1
  %.val = load i32, ptr %2, align 4
  %6 = sext i32 %.val to i64
  %.not.not = icmp slt i64 %indvars.iv.next, %6
  br i1 %.not.not, label %Acb_ManNtk.exit, label %.critedge, !llvm.loop !199

.critedge:                                        ; preds = %Acb_ManNtk.exit, %1
  %7 = getelementptr inbounds nuw i8, ptr %0, i64 1712
  %8 = load ptr, ptr %7, align 8
  %.not29 = icmp eq ptr %8, null
  br i1 %.not29, label %10, label %9

9:                                                ; preds = %.critedge
  tail call void @free(ptr noundef nonnull %8) #31
  store ptr null, ptr %7, align 8
  br label %10

10:                                               ; preds = %.critedge, %9
  %11 = getelementptr inbounds nuw i8, ptr %0, i64 16
  %12 = load ptr, ptr %11, align 8
  tail call void @Abc_NamDeref(ptr noundef %12) #31
  %13 = getelementptr inbounds nuw i8, ptr %0, i64 24
  %14 = load ptr, ptr %13, align 8
  tail call void @Abc_NamDeref(ptr noundef %14) #31
  %15 = getelementptr inbounds nuw i8, ptr %0, i64 32
  %16 = load ptr, ptr %15, align 8
  tail call void @Abc_NamDeref(ptr noundef %16) #31
  %17 = getelementptr inbounds nuw i8, ptr %0, i64 40
  %18 = load ptr, ptr %17, align 8
  %19 = icmp eq ptr %18, null
  br i1 %19, label %Hash_IntManDeref.exit, label %20

20:                                               ; preds = %10
  %21 = getelementptr inbounds nuw i8, ptr %18, i64 16
  %22 = load i32, ptr %21, align 8
  %23 = add nsw i32 %22, -1
  store i32 %23, ptr %21, align 8
  %24 = icmp eq i32 %23, 0
  br i1 %24, label %25, label %Hash_IntManDeref.exit

25:                                               ; preds = %20
  %26 = getelementptr inbounds nuw i8, ptr %18, i64 8
  %27 = load ptr, ptr %26, align 8
  %28 = getelementptr inbounds nuw i8, ptr %27, i64 8
  %29 = load ptr, ptr %28, align 8
  %.not.i.i.i = icmp eq ptr %29, null
  br i1 %.not.i.i.i, label %Vec_IntFree.exit.i.i, label %30

30:                                               ; preds = %25
  tail call void @free(ptr noundef nonnull %29) #31
  br label %Vec_IntFree.exit.i.i

Vec_IntFree.exit.i.i:                             ; preds = %30, %25
  tail call void @free(ptr noundef nonnull %27) #31
  %31 = load ptr, ptr %18, align 8
  %32 = getelementptr inbounds nuw i8, ptr %31, i64 8
  %33 = load ptr, ptr %32, align 8
  %.not.i4.i.i = icmp eq ptr %33, null
  br i1 %.not.i4.i.i, label %Hash_IntManStop.exit.i, label %34

34:                                               ; preds = %Vec_IntFree.exit.i.i
  tail call void @free(ptr noundef nonnull %33) #31
  br label %Hash_IntManStop.exit.i

Hash_IntManStop.exit.i:                           ; preds = %34, %Vec_IntFree.exit.i.i
  tail call void @free(ptr noundef nonnull %31) #31
  tail call void @free(ptr noundef nonnull %18) #31
  br label %Hash_IntManDeref.exit

Hash_IntManDeref.exit:                            ; preds = %10, %20, %Hash_IntManStop.exit.i
  %35 = getelementptr inbounds nuw i8, ptr %0, i64 48
  %36 = getelementptr inbounds nuw i8, ptr %0, i64 56
  %37 = load ptr, ptr %36, align 8
  %.not.i32 = icmp eq ptr %37, null
  br i1 %.not.i32, label %Vec_IntErase.exit, label %38

38:                                               ; preds = %Hash_IntManDeref.exit
  tail call void @free(ptr noundef nonnull %37) #31
  store ptr null, ptr %36, align 8
  br label %Vec_IntErase.exit

Vec_IntErase.exit:                                ; preds = %Hash_IntManDeref.exit, %38
  %39 = getelementptr inbounds nuw i8, ptr %0, i64 52
  store i32 0, ptr %39, align 4
  store i32 0, ptr %35, align 8
  %40 = getelementptr inbounds nuw i8, ptr %0, i64 80
  %41 = getelementptr inbounds nuw i8, ptr %0, i64 88
  %42 = load ptr, ptr %41, align 8
  %.not.i33 = icmp eq ptr %42, null
  br i1 %.not.i33, label %Vec_IntErase.exit34, label %43

43:                                               ; preds = %Vec_IntErase.exit
  tail call void @free(ptr noundef nonnull %42) #31
  store ptr null, ptr %41, align 8
  br label %Vec_IntErase.exit34

Vec_IntErase.exit34:                              ; preds = %Vec_IntErase.exit, %43
  %44 = getelementptr inbounds nuw i8, ptr %0, i64 84
  store i32 0, ptr %44, align 4
  store i32 0, ptr %40, align 8
  %45 = getelementptr inbounds nuw i8, ptr %0, i64 64
  %46 = getelementptr inbounds nuw i8, ptr %0, i64 72
  %47 = load ptr, ptr %46, align 8
  %.not.i35 = icmp eq ptr %47, null
  br i1 %.not.i35, label %Vec_IntErase.exit36, label %48

48:                                               ; preds = %Vec_IntErase.exit34
  tail call void @free(ptr noundef nonnull %47) #31
  store ptr null, ptr %46, align 8
  br label %Vec_IntErase.exit36

Vec_IntErase.exit36:                              ; preds = %Vec_IntErase.exit34, %48
  %49 = getelementptr inbounds nuw i8, ptr %0, i64 68
  store i32 0, ptr %49, align 4
  store i32 0, ptr %45, align 8
  %50 = getelementptr inbounds nuw i8, ptr %0, i64 96
  %51 = getelementptr inbounds nuw i8, ptr %0, i64 104
  %52 = load ptr, ptr %51, align 8
  %.not.i37 = icmp eq ptr %52, null
  br i1 %.not.i37, label %Vec_IntErase.exit38, label %53

53:                                               ; preds = %Vec_IntErase.exit36
  tail call void @free(ptr noundef nonnull %52) #31
  store ptr null, ptr %51, align 8
  br label %Vec_IntErase.exit38

Vec_IntErase.exit38:                              ; preds = %Vec_IntErase.exit36, %53
  %54 = getelementptr inbounds nuw i8, ptr %0, i64 100
  store i32 0, ptr %54, align 4
  store i32 0, ptr %50, align 8
  %55 = getelementptr inbounds nuw i8, ptr %0, i64 1728
  %56 = getelementptr inbounds nuw i8, ptr %0, i64 1736
  %57 = load ptr, ptr %56, align 8
  %.not.i39 = icmp eq ptr %57, null
  br i1 %.not.i39, label %Vec_StrErase.exit, label %58

58:                                               ; preds = %Vec_IntErase.exit38
  tail call void @free(ptr noundef nonnull %57) #31
  store ptr null, ptr %56, align 8
  br label %Vec_StrErase.exit

Vec_StrErase.exit:                                ; preds = %Vec_IntErase.exit38, %58
  %59 = getelementptr inbounds nuw i8, ptr %0, i64 1732
  store i32 0, ptr %59, align 4
  store i32 0, ptr %55, align 8
  %60 = getelementptr inbounds nuw i8, ptr %0, i64 1744
  %61 = getelementptr inbounds nuw i8, ptr %0, i64 1752
  %62 = load ptr, ptr %61, align 8
  %.not.i40 = icmp eq ptr %62, null
  br i1 %.not.i40, label %Vec_StrErase.exit41, label %63

63:                                               ; preds = %Vec_StrErase.exit
  tail call void @free(ptr noundef nonnull %62) #31
  store ptr null, ptr %61, align 8
  br label %Vec_StrErase.exit41

Vec_StrErase.exit41:                              ; preds = %Vec_StrErase.exit, %63
  %64 = getelementptr inbounds nuw i8, ptr %0, i64 1748
  store i32 0, ptr %64, align 4
  store i32 0, ptr %60, align 8
  %65 = load ptr, ptr %0, align 8
  %.not30 = icmp eq ptr %65, null
  br i1 %.not30, label %67, label %66

66:                                               ; preds = %Vec_StrErase.exit41
  tail call void @free(ptr noundef nonnull %65) #31
  store ptr null, ptr %0, align 8
  br label %67

67:                                               ; preds = %Vec_StrErase.exit41, %66
  %68 = getelementptr inbounds nuw i8, ptr %0, i64 8
  %69 = load ptr, ptr %68, align 8
  %.not31 = icmp eq ptr %69, null
  br i1 %.not31, label %71, label %70

70:                                               ; preds = %67
  tail call void @free(ptr noundef nonnull %69) #31
  br label %71

71:                                               ; preds = %70, %67
  tail call void @free(ptr noundef nonnull %0) #31
  ret void
}